target datalayout = "e-m:e-p270:32:32-p271:32:32-p272:64:64-i64:64-i128:128-f80:128-n8:16:32:64-S128"
target triple = "x86_64-pc-linux-gnu"

%class.QString = type { %struct.QArrayDataPointer }
%struct.QArrayDataPointer = type { ptr, ptr, i64 }
%class.CaptureFilterEdit = type { %class.SyntaxLineEdit.base, i8, i8, i8, %class.QString, ptr, ptr, ptr, ptr, ptr, ptr, ptr, ptr, ptr }
%class.SyntaxLineEdit.base = type <{ %class.QLineEdit, ptr, ptr, i32, [4 x i8], %class.QString, %class.QString, %class.QString, %class.QString, %class.QString, i8 }>
%class.QLineEdit = type { %class.QWidget }
%class.QWidget = type { %class.QObject, %class.QPaintDevice.base, ptr }
%class.QObject = type { ptr, %class.QScopedPointer }
%class.QScopedPointer = type { ptr }
%class.QPaintDevice.base = type <{ ptr, i16 }>
%class.QBasicAtomicInteger = type { %"struct.std::atomic" }
%"struct.std::atomic" = type { %"struct.std::__atomic_base" }
%"struct.std::__atomic_base" = type { i32 }
%struct.QArrayData = type { %class.QBasicAtomicInteger, %class.QFlags, i64 }
%class.QFlags = type { i32 }

@mainApp = external global ptr, align 8

; Function Attrs: mustprogress nounwind null_pointer_is_valid sspstrong uwtable
define linkonce_odr noundef i32 @_ZNSt13__atomic_baseIiEmmEv(ptr noundef align 4 dereferenceable_or_null(4) %0) #6 comdat align 2 {
  %2 = alloca ptr, align 8
  %3 = alloca i32, align 4
  %4 = alloca i32, align 4
  store ptr %0, ptr %2, align 8
  %5 = load ptr, ptr %2, align 8
  %6 = getelementptr inbounds nuw %"struct.std::__atomic_base", ptr %5, i32 0, i32 0
  store i32 1, ptr %3, align 4
  %7 = load i32, ptr %3, align 4
  %8 = atomicrmw sub ptr %6, i32 %7 seq_cst, align 4
  %9 = sub i32 %8, %7
  store i32 %9, ptr %4, align 4
  %10 = load i32, ptr %4, align 4
  ret i32 %10
}

; Function Attrs: inlinehint mustprogress nounwind null_pointer_is_valid sspstrong uwtable
define linkonce_odr noundef zeroext i1 @_ZN10QAtomicOpsIiE5derefIiEEbRSt6atomicIT_E(ptr noundef align 4 dereferenceable(4) %0) #2 comdat align 2 {
  %2 = alloca ptr, align 8
  store ptr %0, ptr %2, align 8
  %3 = load ptr, ptr %2, align 8
  %4 = call noundef i32 @_ZNSt13__atomic_baseIiEmmEv(ptr noundef align 4 dereferenceable_or_null(4) %3) #3
  %5 = icmp ne i32 %4, 0
  ret i1 %5
}

; Function Attrs: mustprogress nounwind null_pointer_is_valid sspstrong uwtable
define linkonce_odr noundef zeroext i1 @_ZN19QBasicAtomicIntegerIiE5derefEv(ptr noundef align 4 dereferenceable_or_null(4) %0) #6 comdat align 2 {
  %2 = alloca ptr, align 8
  store ptr %0, ptr %2, align 8
  %3 = load ptr, ptr %2, align 8
  %4 = getelementptr inbounds nuw %class.QBasicAtomicInteger, ptr %3, i32 0, i32 0
  %5 = call noundef zeroext i1 @_ZN10QAtomicOpsIiE5derefIiEEbRSt6atomicIT_E(ptr noundef align 4 dereferenceable(4) %4) #3
  ret i1 %5
}

; Function Attrs: mustprogress nounwind null_pointer_is_valid sspstrong uwtable
define linkonce_odr noundef zeroext i1 @_ZN10QArrayData5derefEv(ptr noundef align 8 dereferenceable_or_null(16) %0) #6 comdat align 2 {
  %2 = alloca ptr, align 8
  store ptr %0, ptr %2, align 8
  %3 = load ptr, ptr %2, align 8
  %4 = getelementptr inbounds nuw %struct.QArrayData, ptr %3, i32 0, i32 0
  %5 = call noundef zeroext i1 @_ZN19QBasicAtomicIntegerIiE5derefEv(ptr noundef align 4 dereferenceable_or_null(4) %4) #3
  ret i1 %5
}

; Function Attrs: mustprogress nounwind null_pointer_is_valid sspstrong uwtable
define linkonce_odr void @_ZN15QTypedArrayDataIDsE10deallocateEP10QArrayData(ptr noundef %0) #6 comdat align 2 {
  %2 = alloca ptr, align 8
  store ptr %0, ptr %2, align 8
  %3 = load ptr, ptr %2, align 8
  call void @_ZN10QArrayData10deallocateEPS_xx(ptr noundef %3, i64 noundef 2, i64 noundef 8) #3
  ret void
}

; Function Attrs: mustprogress nounwind null_pointer_is_valid sspstrong uwtable
define linkonce_odr void @_ZN9QtPrivate12QPodArrayOpsIDsE10destroyAllEv(ptr noundef align 8 dereferenceable_or_null(24) %0) #6 comdat align 2 {
  %2 = alloca ptr, align 8
  store ptr %0, ptr %2, align 8
  ret void
}

; Function Attrs: mustprogress nounwind null_pointer_is_valid sspstrong uwtable
define linkonce_odr noundef ptr @_ZN17QArrayDataPointerIDsEptEv(ptr noundef align 8 dereferenceable_or_null(24) %0) #6 comdat align 2 {
  %2 = alloca ptr, align 8
  store ptr %0, ptr %2, align 8
  %3 = load ptr, ptr %2, align 8
  ret ptr %3
}

; Function Attrs: mustprogress nounwind null_pointer_is_valid sspstrong uwtable
define linkonce_odr noundef zeroext i1 @_ZN17QArrayDataPointerIDsE5derefEv(ptr noundef align 8 dereferenceable_or_null(24) %0) #6 comdat align 2 {
  %2 = alloca ptr, align 8
  store ptr %0, ptr %2, align 8
  %3 = load ptr, ptr %2, align 8
  %4 = getelementptr inbounds nuw %struct.QArrayDataPointer, ptr %3, i32 0, i32 0
  %5 = load ptr, ptr %4, align 8
  %6 = icmp ne ptr %5, null
  br i1 %6, label %7, label %11

7:                                                ; preds = %1
  %8 = getelementptr inbounds nuw %struct.QArrayDataPointer, ptr %3, i32 0, i32 0
  %9 = load ptr, ptr %8, align 8
  %10 = call noundef zeroext i1 @_ZN10QArrayData5derefEv(ptr noundef align 8 dereferenceable_or_null(16) %9) #3
  br label %11

11:                                               ; preds = %7, %1
  %12 = phi i1 [ true, %1 ], [ %10, %7 ]
  ret i1 %12
}

; Function Attrs: mustprogress nounwind null_pointer_is_valid sspstrong uwtable
define linkonce_odr void @_ZN17QArrayDataPointerIDsEC2Ev(ptr noundef align 8 dereferenceable_or_null(24) %0) unnamed_addr #6 comdat align 2 {
  %2 = alloca ptr, align 8
  store ptr %0, ptr %2, align 8
  %3 = load ptr, ptr %2, align 8
  %4 = getelementptr inbounds nuw %struct.QArrayDataPointer, ptr %3, i32 0, i32 0
  store ptr null, ptr %4, align 8
  %5 = getelementptr inbounds nuw %struct.QArrayDataPointer, ptr %3, i32 0, i32 1
  store ptr null, ptr %5, align 8
  %6 = getelementptr inbounds nuw %struct.QArrayDataPointer, ptr %3, i32 0, i32 2
  store i64 0, ptr %6, align 8
  ret void
}

; Function Attrs: mustprogress nounwind null_pointer_is_valid sspstrong uwtable
define linkonce_odr void @_ZN17QArrayDataPointerIDsED2Ev(ptr noundef align 8 dereferenceable_or_null(24) %0) unnamed_addr #6 comdat align 2 {
  %2 = alloca ptr, align 8
  store ptr %0, ptr %2, align 8
  %3 = load ptr, ptr %2, align 8
  %4 = call noundef zeroext i1 @_ZN17QArrayDataPointerIDsE5derefEv(ptr noundef align 8 dereferenceable_or_null(24) %3) #3
  br i1 %4, label %9, label %5

5:                                                ; preds = %1
  %6 = call noundef ptr @_ZN17QArrayDataPointerIDsEptEv(ptr noundef align 8 dereferenceable_or_null(24) %3) #3
  call void @_ZN9QtPrivate12QPodArrayOpsIDsE10destroyAllEv(ptr noundef align 8 dereferenceable_or_null(24) %6) #3
  %7 = getelementptr inbounds nuw %struct.QArrayDataPointer, ptr %3, i32 0, i32 0
  %8 = load ptr, ptr %7, align 8
  call void @_ZN15QTypedArrayDataIDsE10deallocateEP10QArrayData(ptr noundef %8) #3
  br label %9

9:                                                ; preds = %5, %1
  ret void
}

; Function Attrs: inlinehint mustprogress nounwind null_pointer_is_valid sspstrong uwtable
define linkonce_odr void @_ZN7QStringC2Ev(ptr noundef align 8 dereferenceable_or_null(24) %0) unnamed_addr #2 comdat align 2 {
  %2 = alloca ptr, align 8
  store ptr %0, ptr %2, align 8
  %3 = load ptr, ptr %2, align 8
  %4 = getelementptr inbounds nuw %class.QString, ptr %3, i32 0, i32 0
  call void @_ZN17QArrayDataPointerIDsEC2Ev(ptr noundef align 8 dereferenceable_or_null(24) %4) #3
  ret void
}

; Function Attrs: inlinehint mustprogress nounwind null_pointer_is_valid sspstrong uwtable
define linkonce_odr noundef zeroext i1 @_ZNK7QString7isEmptyEv(ptr noundef align 8 dereferenceable_or_null(24) %0) #2 comdat align 2 {
  %2 = alloca ptr, align 8
  store ptr %0, ptr %2, align 8
  %3 = load ptr, ptr %2, align 8
  %4 = getelementptr inbounds nuw %class.QString, ptr %3, i32 0, i32 0
  %5 = getelementptr inbounds nuw %struct.QArrayDataPointer, ptr %4, i32 0, i32 2
  %6 = load i64, ptr %5, align 8
  %7 = icmp eq i64 %6, 0
  ret i1 %7
}

; Function Attrs: inlinehint mustprogress nounwind null_pointer_is_valid sspstrong uwtable
define linkonce_odr void @_ZN7QStringD2Ev(ptr noundef align 8 dereferenceable_or_null(24) %0) unnamed_addr #2 comdat align 2 {
  %2 = alloca ptr, align 8
  store ptr %0, ptr %2, align 8
  %3 = load ptr, ptr %2, align 8
  %4 = getelementptr inbounds nuw %class.QString, ptr %3, i32 0, i32 0
  call void @_ZN17QArrayDataPointerIDsED2Ev(ptr noundef align 8 dereferenceable_or_null(24) %4) #3
  ret void
}

; Function Attrs: mustprogress null_pointer_is_valid sspstrong uwtable
define void @_ZN17CaptureFilterEdit20setFilterSyntaxStateE7QStringiS0_(ptr noundef align 8 dereferenceable_or_null(288) %0, ptr noundef %1, i32 noundef %2, ptr noundef %3) #7 align 2 personality ptr @__gxx_personality_v0 {
  %5 = alloca ptr, align 8
  %6 = alloca ptr, align 8
  %7 = alloca i32, align 4
  %8 = alloca ptr, align 8
  %9 = alloca %class.QString, align 8
  %10 = alloca %class.QString, align 8
  %11 = alloca ptr, align 8
  %12 = alloca i32, align 4
  %13 = alloca i8, align 1
  store ptr %0, ptr %5, align 8
  store ptr %1, ptr %6, align 8
  store i32 %2, ptr %7, align 4
  store ptr %3, ptr %8, align 8
  %14 = load ptr, ptr %5, align 8
  call void @llvm.lifetime.start.p0(i64 24, ptr %9) #3
  call void @_ZNK9QLineEdit4textEv(ptr dead_on_unwind writable sret(%class.QString) align 8 %9, ptr noundef align 8 dereferenceable_or_null(40) %14)
  %15 = call noundef i32 @_ZNK7QString7compareERKS_N2Qt15CaseSensitivityE(ptr noundef align 8 dereferenceable_or_null(24) %1, ptr noundef align 8 dereferenceable(24) %9, i32 noundef 1) #3
  %16 = icmp eq i32 %15, 0
  call void @_ZN7QStringD2Ev(ptr noundef align 8 dereferenceable_or_null(24) %9) #3
  call void @llvm.lifetime.end.p0(i64 24, ptr %9) #3
  br i1 %16, label %17, label %28

17:                                               ; preds = %4
  %18 = load i32, ptr %7, align 4
  call void @_ZN14SyntaxLineEdit14setSyntaxStateENS_11SyntaxStateE(ptr noundef align 8 dereferenceable_or_null(185) %14, i32 noundef %18)
  %19 = call noundef zeroext i1 @_ZNK7QString7isEmptyEv(ptr noundef align 8 dereferenceable_or_null(24) %3)
  br i1 %19, label %27, label %20

20:                                               ; preds = %17
  %21 = load ptr, ptr @mainApp, align 8
  call void @llvm.lifetime.start.p0(i64 24, ptr %10) #3
  call void @_ZN7QStringC2Ev(ptr noundef align 8 dereferenceable_or_null(24) %10) #3
  invoke void @_ZN15MainApplication10pushStatusENS_10StatusInfoERK7QStringS3_(ptr noundef align 8 dereferenceable_or_null(216) %21, i32 noundef 0, ptr noundef align 8 dereferenceable(24) %3, ptr noundef align 8 dereferenceable(24) %10)
          to label %22 unwind label %23

22:                                               ; preds = %20
  call void @_ZN7QStringD2Ev(ptr noundef align 8 dereferenceable_or_null(24) %10) #3
  call void @llvm.lifetime.end.p0(i64 24, ptr %10) #3
  call void @_ZN7QWidget10setToolTipERK7QString(ptr noundef align 8 dereferenceable_or_null(40) %14, ptr noundef align 8 dereferenceable(24) %3)
  br label %27

23:                                               ; preds = %20
  %24 = landingpad { ptr, i32 }
          cleanup
  %25 = extractvalue { ptr, i32 } %24, 0
  store ptr %25, ptr %11, align 8
  %26 = extractvalue { ptr, i32 } %24, 1
  store i32 %26, ptr %12, align 4
  call void @_ZN7QStringD2Ev(ptr noundef align 8 dereferenceable_or_null(24) %10) #3
  call void @llvm.lifetime.end.p0(i64 24, ptr %10) #3
  br label %55

27:                                               ; preds = %22, %17
  br label %28

28:                                               ; preds = %27, %4
  call void @llvm.lifetime.start.p0(i64 1, ptr %13) #3
  %29 = load i32, ptr %7, align 4
  %30 = icmp ne i32 %29, 2
  %31 = zext i1 %30 to i8
  store i8 %31, ptr %13, align 1
  %32 = load i8, ptr %13, align 1, !range !6, !noundef !7
  %33 = trunc i8 %32 to i1
  br i1 %33, label %34, label %52

34:                                               ; preds = %28
  %35 = getelementptr inbounds nuw %class.CaptureFilterEdit, ptr %14, i32 0, i32 5
  %36 = load ptr, ptr %35, align 8
  %37 = icmp ne ptr %36, null
  br i1 %37, label %38, label %44

38:                                               ; preds = %34
  %39 = getelementptr inbounds nuw %class.CaptureFilterEdit, ptr %14, i32 0, i32 5
  %40 = load ptr, ptr %39, align 8
  %41 = getelementptr inbounds nuw %class.CaptureFilterEdit, ptr %14, i32 0, i32 3
  %42 = load i8, ptr %41, align 1, !range !6, !noundef !7
  %43 = trunc i8 %42 to i1
  call void @_ZN7QAction10setEnabledEb(ptr noundef align 8 dereferenceable_or_null(16) %40, i1 noundef zeroext %43)
  br label %44

44:                                               ; preds = %38, %34
  %45 = getelementptr inbounds nuw %class.CaptureFilterEdit, ptr %14, i32 0, i32 10
  %46 = load ptr, ptr %45, align 8
  %47 = icmp ne ptr %46, null
  br i1 %47, label %48, label %51

48:                                               ; preds = %44
  %49 = getelementptr inbounds nuw %class.CaptureFilterEdit, ptr %14, i32 0, i32 10
  %50 = load ptr, ptr %49, align 8
  call void @_ZN7QWidget10setEnabledEb(ptr noundef align 8 dereferenceable_or_null(40) %50, i1 noundef zeroext true)
  br label %51

51:                                               ; preds = %48, %44
  br label %52

52:                                               ; preds = %51, %28
  %53 = load i8, ptr %13, align 1, !range !6, !noundef !7
  %54 = trunc i8 %53 to i1
  call void @_ZN17CaptureFilterEdit26captureFilterSyntaxChangedEb(ptr noundef align 8 dereferenceable_or_null(288) %14, i1 noundef zeroext %54)
  call void @llvm.lifetime.end.p0(i64 1, ptr %13) #3
  ret void

55:                                               ; preds = %23
  %56 = load ptr, ptr %11, align 8
  %57 = load i32, ptr %12, align 4
  %58 = insertvalue { ptr, i32 } poison, ptr %56, 0
  %59 = insertvalue { ptr, i32 } %58, i32 %57, 1
  resume { ptr, i32 } %59
}