; Function Attrs: mustprogress null_pointer_is_valid sspstrong uwtable
define void @_ZN17CaptureFilterEdit20setFilterSyntaxStateE7QStringiS0_(ptr noundef align 8 dereferenceable_or_null(288) %0, ptr noundef %1, i32 noundef %2, ptr noundef %3) #5 align 2 personality ptr @__gxx_personality_v0 {
  %5 = alloca %class.QString, align 8
  %6 = alloca %class.QString, align 8
  call void @llvm.lifetime.start.p0(i64 24, ptr nonnull %5) #23
  call void @_ZNK9QLineEdit4textEv(ptr dead_on_unwind nonnull writable sret(%class.QString) align 8 %5, ptr noundef align 8 dereferenceable_or_null(40) %0)
  %7 = call noundef i32 @_ZNK7QString7compareERKS_N2Qt15CaseSensitivityE(ptr noundef align 8 dereferenceable_or_null(24) %1, ptr noundef nonnull align 8 dereferenceable(24) %5, i32 noundef 1) #23
  %8 = icmp eq i32 %7, 0
  %9 = load ptr, ptr %5, align 8
  %.not.i.i.i = icmp eq ptr %9, null
  br i1 %.not.i.i.i, label %_ZN7QStringD2Ev.exit, label %_ZN17QArrayDataPointerIDsE5derefEv.exit.i.i

_ZN17QArrayDataPointerIDsE5derefEv.exit.i.i:      ; preds = %4
  %10 = atomicrmw sub ptr %9, i32 1 seq_cst, align 4
  %.not.i.i = icmp eq i32 %10, 1
  br i1 %.not.i.i, label %11, label %_ZN7QStringD2Ev.exit

11:                                               ; preds = %_ZN17QArrayDataPointerIDsE5derefEv.exit.i.i
  %12 = load ptr, ptr %5, align 8
  call void @_ZN10QArrayData10deallocateEPS_xx(ptr noundef %12, i64 noundef 2, i64 noundef 8) #23
  br label %_ZN7QStringD2Ev.exit

_ZN7QStringD2Ev.exit:                             ; preds = %4, %_ZN17QArrayDataPointerIDsE5derefEv.exit.i.i, %11
  call void @llvm.lifetime.end.p0(i64 24, ptr nonnull %5) #23
  br i1 %8, label %13, label %30

13:                                               ; preds = %_ZN7QStringD2Ev.exit
  call void @_ZN14SyntaxLineEdit14setSyntaxStateENS_11SyntaxStateE(ptr noundef align 8 dereferenceable_or_null(185) %0, i32 noundef %2)
  %14 = getelementptr inbounds nuw i8, ptr %3, i64 16
  %15 = load i64, ptr %14, align 8
  %16 = icmp eq i64 %15, 0
  br i1 %16, label %30, label %17

17:                                               ; preds = %13
  %18 = load ptr, ptr @mainApp, align 8
  call void @llvm.lifetime.start.p0(i64 24, ptr nonnull %6) #23
  call void @llvm.memset.p0.i64(ptr noundef nonnull align 8 dereferenceable(24) dereferenceable_or_null(24) %6, i8 0, i64 24, i1 false)
  invoke void @_ZN15MainApplication10pushStatusENS_10StatusInfoERK7QStringS3_(ptr noundef align 8 dereferenceable_or_null(216) %18, i32 noundef 0, ptr noundef align 8 dereferenceable(24) %3, ptr noundef nonnull align 8 dereferenceable(24) %6)
          to label %19 unwind label %24

19:                                               ; preds = %17
  %20 = load ptr, ptr %6, align 8
  %.not.i.i.i8 = icmp eq ptr %20, null
  br i1 %.not.i.i.i8, label %_ZN7QStringD2Ev.exit11, label %_ZN17QArrayDataPointerIDsE5derefEv.exit.i.i9

_ZN17QArrayDataPointerIDsE5derefEv.exit.i.i9:     ; preds = %19
  %21 = atomicrmw sub ptr %20, i32 1 seq_cst, align 4
  %.not.i.i10 = icmp eq i32 %21, 1
  br i1 %.not.i.i10, label %22, label %_ZN7QStringD2Ev.exit11

22:                                               ; preds = %_ZN17QArrayDataPointerIDsE5derefEv.exit.i.i9
  %23 = load ptr, ptr %6, align 8
  call void @_ZN10QArrayData10deallocateEPS_xx(ptr noundef %23, i64 noundef 2, i64 noundef 8) #23
  br label %_ZN7QStringD2Ev.exit11

_ZN7QStringD2Ev.exit11:                           ; preds = %19, %_ZN17QArrayDataPointerIDsE5derefEv.exit.i.i9, %22
  call void @llvm.lifetime.end.p0(i64 24, ptr nonnull %6) #23
  call void @_ZN7QWidget10setToolTipERK7QString(ptr noundef align 8 dereferenceable_or_null(40) %0, ptr noundef align 8 dereferenceable(24) %3)
  br label %30

24:                                               ; preds = %17
  %25 = landingpad { ptr, i32 }
          cleanup
  %26 = load ptr, ptr %6, align 8
  %.not.i.i.i12 = icmp eq ptr %26, null
  br i1 %.not.i.i.i12, label %_ZN7QStringD2Ev.exit15, label %_ZN17QArrayDataPointerIDsE5derefEv.exit.i.i13

_ZN17QArrayDataPointerIDsE5derefEv.exit.i.i13:    ; preds = %24
  %27 = atomicrmw sub ptr %26, i32 1 seq_cst, align 4
  %.not.i.i14 = icmp eq i32 %27, 1
  br i1 %.not.i.i14, label %28, label %_ZN7QStringD2Ev.exit15

28:                                               ; preds = %_ZN17QArrayDataPointerIDsE5derefEv.exit.i.i13
  %29 = load ptr, ptr %6, align 8
  call void @_ZN10QArrayData10deallocateEPS_xx(ptr noundef %29, i64 noundef 2, i64 noundef 8) #23
  br label %_ZN7QStringD2Ev.exit15

_ZN7QStringD2Ev.exit15:                           ; preds = %24, %_ZN17QArrayDataPointerIDsE5derefEv.exit.i.i13, %28
  call void @llvm.lifetime.end.p0(i64 24, ptr nonnull %6) #23
  resume { ptr, i32 } %25

30:                                               ; preds = %13, %_ZN7QStringD2Ev.exit11, %_ZN7QStringD2Ev.exit
  %31 = icmp ne i32 %2, 2
  br i1 %31, label %32, label %43

32:                                               ; preds = %30
  %33 = getelementptr inbounds nuw i8, ptr %0, i64 216
  %34 = load ptr, ptr %33, align 8
  %.not = icmp eq ptr %34, null
  br i1 %.not, label %39, label %35

35:                                               ; preds = %32
  %36 = getelementptr inbounds nuw i8, ptr %0, i64 187
  %37 = load i8, ptr %36, align 1, !range !8, !noundef !9
  %38 = trunc nuw i8 %37 to i1
  call void @_ZN7QAction10setEnabledEb(ptr noundef nonnull align 8 dereferenceable_or_null(16) %34, i1 noundef zeroext %38)
  br label %39

39:                                               ; preds = %35, %32
  %40 = getelementptr inbounds nuw i8, ptr %0, i64 256
  %41 = load ptr, ptr %40, align 8
  %.not7 = icmp eq ptr %41, null
  br i1 %.not7, label %43, label %42

42:                                               ; preds = %39
  call void @_ZN7QWidget10setEnabledEb(ptr noundef nonnull align 8 dereferenceable_or_null(40) %41, i1 noundef zeroext true)
  br label %43

43:                                               ; preds = %39, %42, %30
  call void @_ZN17CaptureFilterEdit26captureFilterSyntaxChangedEb(ptr noundef align 8 dereferenceable_or_null(288) %0, i1 noundef zeroext %31)
  ret void
}